# SymbolsHelper-Confirmed: 4:17.08.0 amd64 armel armhf i386 m68k mips mipsel powerpc
libKF5AkonadiSearchXapian.so.5 libkf5akonadisearchxapian5 #MINVER#
 (optional=templinst|arch=)_ZN6Xapian5QueryC1IN5QListIS0_E8iteratorEEENS0_2opET_S6_j@Base 15.07.90
 (optional=templinst|arch=)_ZN6Xapian5QueryC2IN5QListIS0_E8iteratorEEENS0_2opET_S6_j@Base 15.07.90
 _ZN7Akonadi6Search14XapianDatabase14deleteDocumentEj@Base 15.07.90
 _ZN7Akonadi6Search14XapianDatabase15replaceDocumentEjRKN6Xapian8DocumentE@Base 15.07.90
 _ZN7Akonadi6Search14XapianDatabase15replaceDocumentEjRKNS0_14XapianDocumentE@Base 15.07.90
 _ZN7Akonadi6Search14XapianDatabase16createWritableDbEv@Base 15.07.90
 _ZN7Akonadi6Search14XapianDatabase6commitEv@Base 15.07.90
 _ZN7Akonadi6Search14XapianDatabase8documentEj@Base 15.07.90
 _ZN7Akonadi6Search14XapianDatabaseC1ERK7QStringb@Base 15.07.90
 _ZN7Akonadi6Search14XapianDatabaseC2ERK7QStringb@Base 15.07.90
 _ZN7Akonadi6Search14XapianDatabaseD1Ev@Base 15.07.90
 _ZN7Akonadi6Search14XapianDatabaseD2Ev@Base 15.07.90
 _ZN7Akonadi6Search14XapianDocument11addBoolTermERK7QStringS4_@Base 15.07.90
 _ZN7Akonadi6Search14XapianDocument11addBoolTermEiRK7QString@Base 15.07.90
 _ZN7Akonadi6Search14XapianDocument19fetchTermStartsWithERK10QByteArray@Base 15.07.90
 _ZN7Akonadi6Search14XapianDocument20removeTermStartsWithERK10QByteArray@Base 15.07.90
 _ZN7Akonadi6Search14XapianDocument7addTermERK7QStringS4_@Base 15.07.90
 _ZN7Akonadi6Search14XapianDocument8addValueEiRK7QString@Base 15.07.90
 _ZN7Akonadi6Search14XapianDocument9indexTextERK7QStringS4_i@Base 15.07.90
 _ZN7Akonadi6Search14XapianDocument9indexTextERK7QStringi@Base 15.07.90
 _ZN7Akonadi6Search14XapianDocumentC1ERKN6Xapian8DocumentE@Base 15.07.90
 _ZN7Akonadi6Search14XapianDocumentC1Ev@Base 15.07.90
 _ZN7Akonadi6Search14XapianDocumentC2ERKN6Xapian8DocumentE@Base 15.07.90
 _ZN7Akonadi6Search14XapianDocumentC2Ev@Base 15.07.90
 _ZN7Akonadi6Search17XapianQueryParser10expandWordERK7QStringS4_@Base 15.07.90
 _ZN7Akonadi6Search17XapianQueryParser10parseQueryERK7QStringS4_@Base 15.07.90
 _ZN7Akonadi6Search17XapianQueryParser11setDatabaseEPN6Xapian8DatabaseE@Base 15.07.90
 _ZN7Akonadi6Search17XapianQueryParser14setAutoExapandEb@Base 15.07.90
 _ZN7Akonadi6Search17XapianQueryParserC1Ev@Base 15.07.90
 _ZN7Akonadi6Search17XapianQueryParserC2Ev@Base 15.07.90
 _ZN7Akonadi6Search17XapianSearchStore11docForQueryEi@Base 15.07.90
 _ZN7Akonadi6Search17XapianSearchStore11qt_metacallEN11QMetaObject4CallEiPPv@Base 16.04.0
 _ZN7Akonadi6Search17XapianSearchStore11qt_metacastEPKc@Base 16.04.0
 _ZN7Akonadi6Search17XapianSearchStore13finalizeQueryERKN6Xapian5QueryE@Base 15.07.90
 _ZN7Akonadi6Search17XapianSearchStore13toXapianQueryEN6Xapian5Query2opERK5QListINS0_4TermEE@Base 15.07.90
 _ZN7Akonadi6Search17XapianSearchStore13toXapianQueryERKNS0_4TermE@Base 15.07.90
 _ZN7Akonadi6Search17XapianSearchStore16staticMetaObjectE@Base 16.04.0
 _ZN7Akonadi6Search17XapianSearchStore18applyCustomOptionsERKN6Xapian5QueryERK4QMapI7QString8QVariantE@Base 15.07.90
 _ZN7Akonadi6Search17XapianSearchStore20constructFilterQueryEiii@Base 15.07.90
 _ZN7Akonadi6Search17XapianSearchStore20constructSearchQueryERK7QString@Base 15.07.90
 _ZN7Akonadi6Search17XapianSearchStore2idEi@Base 15.07.90
 _ZN7Akonadi6Search17XapianSearchStore3urlEi@Base 15.07.90
 _ZN7Akonadi6Search17XapianSearchStore4execERKNS0_5QueryE@Base 15.07.90
 _ZN7Akonadi6Search17XapianSearchStore4nextEi@Base 15.07.90
 _ZN7Akonadi6Search17XapianSearchStore5closeEi@Base 15.07.90
 _ZN7Akonadi6Search17XapianSearchStore6dbPathEv@Base 15.07.90
 _ZN7Akonadi6Search17XapianSearchStore8andQueryERKN6Xapian5QueryES5_@Base 15.07.90
 _ZN7Akonadi6Search17XapianSearchStore8xapianDbEv@Base 15.07.90
 _ZN7Akonadi6Search17XapianSearchStore9setDbPathERK7QString@Base 15.07.90
 _ZN7Akonadi6Search17XapianSearchStoreC1EP7QObject@Base 15.07.90
 _ZN7Akonadi6Search17XapianSearchStoreC2EP7QObject@Base 15.07.90
 _ZN7Akonadi6Search17XapianSearchStoreD0Ev@Base 15.07.90
 _ZN7Akonadi6Search17XapianSearchStoreD1Ev@Base 15.07.90
 _ZN7Akonadi6Search17XapianSearchStoreD2Ev@Base 15.07.90
 _ZN7Akonadi6Search19XapianTermGenerator11setDocumentEPN6Xapian8DocumentE@Base 15.07.90
 _ZN7Akonadi6Search19XapianTermGenerator11setPositionEi@Base 15.07.90
 _ZN7Akonadi6Search19XapianTermGenerator8termListERK7QString@Base 15.07.90
 _ZN7Akonadi6Search19XapianTermGenerator9indexTextERK7QString@Base 15.07.90
 _ZN7Akonadi6Search19XapianTermGenerator9indexTextERK7QStringS4_i@Base 15.07.90
 _ZN7Akonadi6Search19XapianTermGeneratorC1EPN6Xapian8DocumentE@Base 15.07.90
 _ZN7Akonadi6Search19XapianTermGeneratorC2EPN6Xapian8DocumentE@Base 15.07.90
 _ZNK7Akonadi6Search14XapianDatabase11haveChangesEv@Base 15.07.90
 _ZNK7Akonadi6Search14XapianDocument3docEv@Base 15.07.90
 _ZNK7Akonadi6Search17XapianSearchStore10metaObjectEv@Base 16.04.0
 _ZNK7Akonadi6Search19XapianTermGenerator8positionEv@Base 15.07.90
 (optional=templinst|subst)_ZNSt11this_thread9sleep_forI{int64_t}St5ratioIL{int64_t}1EL{int64_t}1000EEEEvRKNSt6chrono8durationIT_T0_EE@Base 4:17.08.0
 _ZTIN6Xapian12RuntimeErrorE@Base 15.07.90
 _ZTIN6Xapian13DatabaseErrorE@Base 15.07.90
 _ZTIN6Xapian16DocNotFoundErrorE@Base 15.07.90
 _ZTIN6Xapian17DatabaseLockErrorE@Base 15.07.90
 _ZTIN6Xapian19DatabaseCreateErrorE@Base 15.07.90
 _ZTIN6Xapian20DatabaseCorruptErrorE@Base 15.07.90
 _ZTIN6Xapian20DatabaseOpeningErrorE@Base 15.07.90
 _ZTIN6Xapian21DatabaseModifiedErrorE@Base 15.07.90
 _ZTIN6Xapian5ErrorE@Base 15.07.90
 _ZTIN7Akonadi6Search17XapianSearchStoreE@Base 15.07.90
 _ZTSN6Xapian12RuntimeErrorE@Base 15.07.90
 _ZTSN6Xapian13DatabaseErrorE@Base 15.07.90
 _ZTSN6Xapian16DocNotFoundErrorE@Base 15.07.90
 _ZTSN6Xapian17DatabaseLockErrorE@Base 15.07.90
 _ZTSN6Xapian19DatabaseCreateErrorE@Base 15.07.90
 _ZTSN6Xapian20DatabaseCorruptErrorE@Base 15.07.90
 _ZTSN6Xapian20DatabaseOpeningErrorE@Base 15.07.90
 _ZTSN6Xapian21DatabaseModifiedErrorE@Base 15.07.90
 _ZTSN6Xapian5ErrorE@Base 15.07.90
 _ZTSN7Akonadi6Search17XapianSearchStoreE@Base 15.07.90
 _ZTVN7Akonadi6Search17XapianSearchStoreE@Base 15.07.90
