# SymbolsHelper-Confirmed: 16.04.3 amd64 i386
libKF5AkonadiSearchPIM.so.5 libkf5akonadisearchpim5 #MINVER#
 (optional=templinst|arch=)_ZN6Xapian5QueryC1IN5QListIS0_E8iteratorEEENS0_2opET_S6_j@Base 15.07.90
 (optional=templinst|arch=)_ZN6Xapian5QueryC2IN5QListIS0_E8iteratorEEENS0_2opET_S6_j@Base 15.07.90
 _ZN7Akonadi6Search3PIM10EmailQuery11addInvolvesERK7QString@Base 15.07.90
 _ZN7Akonadi6Search3PIM10EmailQuery11bodyMatchesERK7QString@Base 15.07.90
 _ZN7Akonadi6Search3PIM10EmailQuery11setInvolvesERK11QStringList@Base 15.07.90
 _ZN7Akonadi6Search3PIM10EmailQuery12setImportantEb@Base 15.07.90
 _ZN7Akonadi6Search3PIM10EmailQuery13addCollectionEx@Base 15.07.90
 _ZN7Akonadi6Search3PIM10EmailQuery13setAttachmentEb@Base 15.07.90
 _ZN7Akonadi6Search3PIM10EmailQuery13setCollectionERK5QListIxE@Base 15.07.90
 _ZN7Akonadi6Search3PIM10EmailQuery13setSearchTypeENS2_6OpTypeE@Base 15.07.90
 _ZN7Akonadi6Search3PIM10EmailQuery14subjectMatchesERK7QString@Base 15.07.90
 _ZN7Akonadi6Search3PIM10EmailQuery25setSplitSearchMatchStringEb@Base 15.07.90
 _ZN7Akonadi6Search3PIM10EmailQuery4execEv@Base 15.07.90
 _ZN7Akonadi6Search3PIM10EmailQuery5addCcERK7QString@Base 15.07.90
 _ZN7Akonadi6Search3PIM10EmailQuery5addToERK7QString@Base 15.07.90
 _ZN7Akonadi6Search3PIM10EmailQuery5setCcERK11QStringList@Base 15.07.90
 _ZN7Akonadi6Search3PIM10EmailQuery5setToERK11QStringList@Base 15.07.90
 _ZN7Akonadi6Search3PIM10EmailQuery6addBccERK7QString@Base 15.07.90
 _ZN7Akonadi6Search3PIM10EmailQuery6setBccERK11QStringList@Base 15.07.90
 _ZN7Akonadi6Search3PIM10EmailQuery7addFromERK7QString@Base 15.07.90
 _ZN7Akonadi6Search3PIM10EmailQuery7matchesERK7QString@Base 15.07.90
 _ZN7Akonadi6Search3PIM10EmailQuery7setFromERK7QString@Base 15.07.90
 _ZN7Akonadi6Search3PIM10EmailQuery7setReadEb@Base 15.07.90
 _ZN7Akonadi6Search3PIM10EmailQuery8setLimitEi@Base 15.07.90
 _ZN7Akonadi6Search3PIM10EmailQueryC1Ev@Base 15.07.90
 _ZN7Akonadi6Search3PIM10EmailQueryC2Ev@Base 15.07.90
 _ZN7Akonadi6Search3PIM10EmailQueryD0Ev@Base 15.07.90
 _ZN7Akonadi6Search3PIM10EmailQueryD1Ev@Base 15.07.90
 _ZN7Akonadi6Search3PIM10EmailQueryD2Ev@Base 15.07.90
 _ZN7Akonadi6Search3PIM12ContactQuery10matchEmailERK7QString@Base 15.07.90
 _ZN7Akonadi6Search3PIM12ContactQuery13matchNicknameERK7QString@Base 15.07.90
 _ZN7Akonadi6Search3PIM12ContactQuery16setMatchCriteriaENS2_13MatchCriteriaE@Base 15.07.90
 _ZN7Akonadi6Search3PIM12ContactQuery4execEv@Base 15.07.90
 _ZN7Akonadi6Search3PIM12ContactQuery5matchERK7QString@Base 15.07.90
 _ZN7Akonadi6Search3PIM12ContactQuery8matchUIDERK7QString@Base 15.07.90
 _ZN7Akonadi6Search3PIM12ContactQuery8setLimitEi@Base 15.07.90
 _ZN7Akonadi6Search3PIM12ContactQuery9matchNameERK7QString@Base 15.07.90
 _ZN7Akonadi6Search3PIM12ContactQueryC1Ev@Base 15.07.90
 _ZN7Akonadi6Search3PIM12ContactQueryC2Ev@Base 15.07.90
 _ZN7Akonadi6Search3PIM12ContactQueryD0Ev@Base 15.07.90
 _ZN7Akonadi6Search3PIM12ContactQueryD1Ev@Base 15.07.90
 _ZN7Akonadi6Search3PIM12ContactQueryD2Ev@Base 15.07.90
 _ZN7Akonadi6Search3PIM14ResultIterator2idEv@Base 15.07.90
 _ZN7Akonadi6Search3PIM14ResultIterator4nextEv@Base 15.07.90
 _ZN7Akonadi6Search3PIM14ResultIteratorC1ERKS2_@Base 15.07.90
 _ZN7Akonadi6Search3PIM14ResultIteratorC1Ev@Base 15.07.90
 _ZN7Akonadi6Search3PIM14ResultIteratorC2ERKS2_@Base 15.07.90
 _ZN7Akonadi6Search3PIM14ResultIteratorC2Ev@Base 15.07.90
 _ZN7Akonadi6Search3PIM14ResultIteratorD1Ev@Base 15.07.90
 _ZN7Akonadi6Search3PIM14ResultIteratorD2Ev@Base 15.07.90
 _ZN7Akonadi6Search3PIM15CollectionQuery11nameMatchesERK7QString@Base 15.07.90
 _ZN7Akonadi6Search3PIM15CollectionQuery11pathMatchesERK7QString@Base 15.07.90
 _ZN7Akonadi6Search3PIM15CollectionQuery11setMimetypeERK11QStringList@Base 15.07.90
 _ZN7Akonadi6Search3PIM15CollectionQuery12setNamespaceERK11QStringList@Base 15.07.90
 _ZN7Akonadi6Search3PIM15CollectionQuery14setDatabaseDirERK7QString@Base 15.07.90
 _ZN7Akonadi6Search3PIM15CollectionQuery17identifierMatchesERK7QString@Base 15.07.90
 _ZN7Akonadi6Search3PIM15CollectionQuery4execEv@Base 15.07.90
 _ZN7Akonadi6Search3PIM15CollectionQuery8setLimitEi@Base 15.07.90
 _ZN7Akonadi6Search3PIM15CollectionQueryC1Ev@Base 15.07.90
 _ZN7Akonadi6Search3PIM15CollectionQueryC2Ev@Base 15.07.90
 _ZN7Akonadi6Search3PIM15CollectionQueryD0Ev@Base 15.07.90
 _ZN7Akonadi6Search3PIM15CollectionQueryD1Ev@Base 15.07.90
 _ZN7Akonadi6Search3PIM15CollectionQueryD2Ev@Base 15.07.90
 _ZN7Akonadi6Search3PIM16ContactCompleter8completeEv@Base 15.07.90
 _ZN7Akonadi6Search3PIM16ContactCompleterC1ERK7QStringi@Base 15.07.90
 _ZN7Akonadi6Search3PIM16ContactCompleterC2ERK7QStringi@Base 15.07.90
 _ZN7Akonadi6Search3PIM5Query15defaultLocationERK7QString@Base 15.12.1
 _ZN7Akonadi6Search3PIM5Query8fromJSONERK10QByteArray@Base 15.07.90
 _ZN7Akonadi6Search3PIM5QueryC1Ev@Base 15.07.90
 _ZN7Akonadi6Search3PIM5QueryC2Ev@Base 15.07.90
 _ZN7Akonadi6Search3PIM5QueryD0Ev@Base 15.07.90
 _ZN7Akonadi6Search3PIM5QueryD1Ev@Base 15.07.90
 _ZN7Akonadi6Search3PIM5QueryD2Ev@Base 15.07.90
 _ZN7Akonadi6Search3PIM9NoteQuery10matchTitleERK7QString@Base 15.07.90
 _ZN7Akonadi6Search3PIM9NoteQuery4execEv@Base 15.07.90
 _ZN7Akonadi6Search3PIM9NoteQuery8setLimitEi@Base 15.07.90
 _ZN7Akonadi6Search3PIM9NoteQuery9matchNoteERK7QString@Base 15.07.90
 _ZN7Akonadi6Search3PIM9NoteQueryC1Ev@Base 15.07.90
 _ZN7Akonadi6Search3PIM9NoteQueryC2Ev@Base 15.07.90
 _ZN7Akonadi6Search3PIM9NoteQueryD0Ev@Base 15.07.90
 _ZN7Akonadi6Search3PIM9NoteQueryD1Ev@Base 15.07.90
 _ZN7Akonadi6Search3PIM9NoteQueryD2Ev@Base 15.07.90
 _ZNK7Akonadi6Search3PIM10EmailQuery5limitEv@Base 15.07.90
 _ZNK7Akonadi6Search3PIM12ContactQuery13matchCriteriaEv@Base 15.07.90
 _ZNK7Akonadi6Search3PIM12ContactQuery5limitEv@Base 15.07.90
 _ZNK7Akonadi6Search3PIM9NoteQuery5limitEv@Base 15.07.90
 _ZTIN6Xapian12RuntimeErrorE@Base 15.07.90
 _ZTIN6Xapian13DatabaseErrorE@Base 15.07.90
 _ZTIN6Xapian20DatabaseCorruptErrorE@Base 15.07.90
 _ZTIN6Xapian20DatabaseOpeningErrorE@Base 15.07.90
 _ZTIN6Xapian5ErrorE@Base 15.07.90
 _ZTIN7Akonadi6Search3PIM10EmailQueryE@Base 15.07.90
 _ZTIN7Akonadi6Search3PIM12ContactQueryE@Base 15.07.90
 _ZTIN7Akonadi6Search3PIM15CollectionQueryE@Base 15.07.90
 _ZTIN7Akonadi6Search3PIM5QueryE@Base 15.07.90
 _ZTIN7Akonadi6Search3PIM9NoteQueryE@Base 15.07.90
 _ZTSN6Xapian12RuntimeErrorE@Base 15.07.90
 _ZTSN6Xapian13DatabaseErrorE@Base 15.07.90
 _ZTSN6Xapian20DatabaseCorruptErrorE@Base 15.07.90
 _ZTSN6Xapian20DatabaseOpeningErrorE@Base 15.07.90
 _ZTSN6Xapian5ErrorE@Base 15.07.90
 _ZTSN7Akonadi6Search3PIM10EmailQueryE@Base 15.07.90
 _ZTSN7Akonadi6Search3PIM12ContactQueryE@Base 15.07.90
 _ZTSN7Akonadi6Search3PIM15CollectionQueryE@Base 15.07.90
 _ZTSN7Akonadi6Search3PIM5QueryE@Base 15.07.90
 _ZTSN7Akonadi6Search3PIM9NoteQueryE@Base 15.07.90
 _ZTVN7Akonadi6Search3PIM10EmailQueryE@Base 15.07.90
 _ZTVN7Akonadi6Search3PIM12ContactQueryE@Base 15.07.90
 _ZTVN7Akonadi6Search3PIM15CollectionQueryE@Base 15.07.90
 _ZTVN7Akonadi6Search3PIM5QueryE@Base 15.07.90
 _ZTVN7Akonadi6Search3PIM9NoteQueryE@Base 15.07.90
