# SymbolsHelper-Confirmed: 4:15.12.1 amd64 i386
libKF5AkonadiSearchDebug.so.5 libkf5akonadisearchdebug5 #MINVER#
 _ZN7Akonadi6Search24AkonadiSearchDebugDialog10readConfigEv@Base 15.08.2
 _ZN7Akonadi6Search24AkonadiSearchDebugDialog10saveTextAsERK7QStringS4_@Base 15.08.2
 _ZN7Akonadi6Search24AkonadiSearchDebugDialog10saveToFileERK7QStringS4_@Base 15.08.2
 _ZN7Akonadi6Search24AkonadiSearchDebugDialog10slotSaveAsEv@Base 15.08.2
 _ZN7Akonadi6Search24AkonadiSearchDebugDialog11qt_metacallEN11QMetaObject4CallEiPPv@Base 15.08.2
 _ZN7Akonadi6Search24AkonadiSearchDebugDialog11qt_metacastEPKc@Base 15.08.2
 _ZN7Akonadi6Search24AkonadiSearchDebugDialog11writeConfigEv@Base 15.08.2
 _ZN7Akonadi6Search24AkonadiSearchDebugDialog12setAkonadiIdEx@Base 15.08.2
 _ZN7Akonadi6Search24AkonadiSearchDebugDialog13setSearchTypeENS0_36AkonadiSearchDebugSearchPathComboBox10SearchTypeE@Base 15.08.2
 _ZN7Akonadi6Search24AkonadiSearchDebugDialog16staticMetaObjectE@Base 15.08.2
 _ZN7Akonadi6Search24AkonadiSearchDebugDialog8doSearchEv@Base 15.08.2
 _ZN7Akonadi6Search24AkonadiSearchDebugDialogC1EP7QWidget@Base 15.08.2
 _ZN7Akonadi6Search24AkonadiSearchDebugDialogC2EP7QWidget@Base 15.08.2
 _ZN7Akonadi6Search24AkonadiSearchDebugDialogD0Ev@Base 15.08.2
 _ZN7Akonadi6Search24AkonadiSearchDebugDialogD1Ev@Base 15.08.2
 _ZN7Akonadi6Search24AkonadiSearchDebugDialogD2Ev@Base 15.08.2
 _ZN7Akonadi6Search24AkonadiSearchDebugWidget10slotResultERK7QString@Base 15.08.2
 _ZN7Akonadi6Search24AkonadiSearchDebugWidget10slotSearchEv@Base 15.08.2
 _ZN7Akonadi6Search24AkonadiSearchDebugWidget11qt_metacallEN11QMetaObject4CallEiPPv@Base 15.08.2
 _ZN7Akonadi6Search24AkonadiSearchDebugWidget11qt_metacastEPKc@Base 15.08.2
 _ZN7Akonadi6Search24AkonadiSearchDebugWidget12setAkonadiIdEx@Base 15.08.2
 _ZN7Akonadi6Search24AkonadiSearchDebugWidget13setSearchTypeENS0_36AkonadiSearchDebugSearchPathComboBox10SearchTypeE@Base 15.08.2
 _ZN7Akonadi6Search24AkonadiSearchDebugWidget16staticMetaObjectE@Base 15.08.2
 _ZN7Akonadi6Search24AkonadiSearchDebugWidget25slotSearchLineTextChangedERK7QString@Base 15.08.2
 _ZN7Akonadi6Search24AkonadiSearchDebugWidget8doSearchEv@Base 15.08.2
 _ZN7Akonadi6Search24AkonadiSearchDebugWidget9slotErrorERK7QString@Base 15.08.2
 _ZN7Akonadi6Search24AkonadiSearchDebugWidgetC1EP7QWidget@Base 15.08.2
 _ZN7Akonadi6Search24AkonadiSearchDebugWidgetC2EP7QWidget@Base 15.08.2
 _ZN7Akonadi6Search24AkonadiSearchDebugWidgetD0Ev@Base 15.08.2
 _ZN7Akonadi6Search24AkonadiSearchDebugWidgetD1Ev@Base 15.08.2
 _ZN7Akonadi6Search24AkonadiSearchDebugWidgetD2Ev@Base 15.08.2
 _ZN7Akonadi6Search36AkonadiSearchDebugSearchPathComboBox10initializeEv@Base 15.08.2
 _ZN7Akonadi6Search36AkonadiSearchDebugSearchPathComboBox10searchPathEv@Base 4:15.12.1
 _ZN7Akonadi6Search36AkonadiSearchDebugSearchPathComboBox11qt_metacallEN11QMetaObject4CallEiPPv@Base 15.08.2
 _ZN7Akonadi6Search36AkonadiSearchDebugSearchPathComboBox11qt_metacastEPKc@Base 15.08.2
 _ZN7Akonadi6Search36AkonadiSearchDebugSearchPathComboBox12pathFromEnumENS1_10SearchTypeE@Base 4:15.12.1
 _ZN7Akonadi6Search36AkonadiSearchDebugSearchPathComboBox13setSearchTypeENS1_10SearchTypeE@Base 15.08.2
 _ZN7Akonadi6Search36AkonadiSearchDebugSearchPathComboBox16defaultLocationsERK7QString@Base 4:15.12.1
 _ZN7Akonadi6Search36AkonadiSearchDebugSearchPathComboBox16staticMetaObjectE@Base 15.08.2
 _ZN7Akonadi6Search36AkonadiSearchDebugSearchPathComboBoxC1EP7QWidget@Base 15.08.2
 _ZN7Akonadi6Search36AkonadiSearchDebugSearchPathComboBoxC2EP7QWidget@Base 15.08.2
 _ZN7Akonadi6Search36AkonadiSearchDebugSearchPathComboBoxD0Ev@Base 15.08.2
 _ZN7Akonadi6Search36AkonadiSearchDebugSearchPathComboBoxD1Ev@Base 15.08.2
 _ZN7Akonadi6Search36AkonadiSearchDebugSearchPathComboBoxD2Ev@Base 15.08.2
 (optional=templinst)_ZNK12KConfigGroup9readEntryI5QSizeEET_PKcRKS2_@Base 15.08.2
 _ZNK7Akonadi6Search24AkonadiSearchDebugDialog10metaObjectEv@Base 15.08.2
 _ZNK7Akonadi6Search24AkonadiSearchDebugWidget10metaObjectEv@Base 15.08.2
 _ZNK7Akonadi6Search24AkonadiSearchDebugWidget9plainTextEv@Base 15.08.2
 _ZNK7Akonadi6Search36AkonadiSearchDebugSearchPathComboBox10metaObjectEv@Base 15.08.2
 _ZTIN7Akonadi6Search24AkonadiSearchDebugDialogE@Base 15.08.2
 _ZTIN7Akonadi6Search24AkonadiSearchDebugWidgetE@Base 15.08.2
 _ZTIN7Akonadi6Search36AkonadiSearchDebugSearchPathComboBoxE@Base 15.08.2
 _ZTSN7Akonadi6Search24AkonadiSearchDebugDialogE@Base 15.08.2
 _ZTSN7Akonadi6Search24AkonadiSearchDebugWidgetE@Base 15.08.2
 _ZTSN7Akonadi6Search36AkonadiSearchDebugSearchPathComboBoxE@Base 15.08.2
 _ZTVN7Akonadi6Search24AkonadiSearchDebugDialogE@Base 15.08.2
 _ZTVN7Akonadi6Search24AkonadiSearchDebugWidgetE@Base 15.08.2
 _ZTVN7Akonadi6Search36AkonadiSearchDebugSearchPathComboBoxE@Base 15.08.2
 (c++)"non-virtual thunk to Akonadi::Search::AkonadiSearchDebugDialog::~AkonadiSearchDebugDialog()@Base" 15.08.2
 (c++)"non-virtual thunk to Akonadi::Search::AkonadiSearchDebugSearchPathComboBox::~AkonadiSearchDebugSearchPathComboBox()@Base" 15.08.2
 (c++)"non-virtual thunk to Akonadi::Search::AkonadiSearchDebugWidget::~AkonadiSearchDebugWidget()@Base" 15.08.2
